target datalayout = "e-m:e-p270:32:32-p271:32:32-p272:64:64-i64:64-i128:128-f80:128-n8:16:32:64-S128"
target triple = "x86_64-pc-linux-gnu"

%struct.SResource = type { ptr, i8, i8, i32, i32, i32, i32, i32, ptr, %struct.UString }
%struct.UString = type { ptr, i32, i32 }
%class.BinaryResource = type { %struct.SResource, i32, ptr, ptr }

; Function Attrs: mustprogress nounwind uwtable
define dso_local void @_ZN14BinaryResource14handlePreWriteEPj(ptr noundef nonnull align 8 dereferenceable(80) %0, ptr noundef %1) unnamed_addr #4 align 2 {
  %3 = alloca ptr, align 8
  %4 = alloca ptr, align 8
  %5 = alloca i32, align 4
  %6 = alloca i32, align 4
  store ptr %0, ptr %3, align 8, !tbaa !97
  store ptr %1, ptr %4, align 8, !tbaa !96
  %7 = load ptr, ptr %3, align 8
  call void @llvm.lifetime.start.p0(i64 4, ptr %5) #3
  store i32 0, ptr %5, align 4, !tbaa !23
  call void @llvm.lifetime.start.p0(i64 4, ptr %6) #3
  %8 = load ptr, ptr %4, align 8, !tbaa !96
  %9 = load i32, ptr %8, align 4, !tbaa !23
  %10 = zext i32 %9 to i64
  %11 = add i64 %10, 4
  %12 = trunc i64 %11 to i32
  store i32 %12, ptr %6, align 4, !tbaa !23
  %13 = load i32, ptr %6, align 4, !tbaa !23
  %14 = urem i32 %13, 16
  %15 = icmp ne i32 %14, 0
  br i1 %15, label %16, label %24

16:                                               ; preds = %2
  %17 = load i32, ptr %6, align 4, !tbaa !23
  %18 = urem i32 %17, 16
  %19 = sub i32 16, %18
  store i32 %19, ptr %5, align 4, !tbaa !23
  %20 = load i32, ptr %5, align 4, !tbaa !23
  %21 = load ptr, ptr %4, align 8, !tbaa !96
  %22 = load i32, ptr %21, align 4, !tbaa !23
  %23 = add i32 %22, %20
  store i32 %23, ptr %21, align 4, !tbaa !23
  br label %24

24:                                               ; preds = %16, %2
  %25 = load ptr, ptr %4, align 8, !tbaa !96
  %26 = load i32, ptr %25, align 4, !tbaa !23
  %27 = lshr i32 %26, 2
  %28 = or i32 268435456, %27
  %29 = getelementptr inbounds nuw %struct.SResource, ptr %7, i32 0, i32 3
  store i32 %28, ptr %29, align 4, !tbaa !33
  %30 = getelementptr inbounds nuw %class.BinaryResource, ptr %7, i32 0, i32 1
  %31 = load i32, ptr %30, align 8, !tbaa !99
  %32 = add i32 4, %31
  %33 = load ptr, ptr %4, align 8, !tbaa !96
  %34 = load i32, ptr %33, align 4, !tbaa !23
  %35 = add i32 %34, %32
  store i32 %35, ptr %33, align 4, !tbaa !23
  call void @llvm.lifetime.end.p0(i64 4, ptr %6) #3
  call void @llvm.lifetime.end.p0(i64 4, ptr %5) #3
  ret void
}