; Function Attrs: mustprogress nofree norecurse nosync nounwind willreturn memory(argmem: readwrite) uwtable
define dso_local void @_ZN14BinaryResource14handlePreWriteEPj(ptr noundef nonnull align 8 captures(none) dereferenceable(80) initializes((12, 16)) %0, ptr noundef captures(none) %1) unnamed_addr #14 align 2 {
  %3 = load i32, ptr %1, align 4, !tbaa !7
  %4 = and i32 %3, 15
  %.not = icmp eq i32 %4, 12
  br i1 %.not, label %9, label %5

5:                                                ; preds = %2
  %6 = add i32 %3, 4
  %7 = and i32 %6, 15
  %reass.sub = add i32 %3, 16
  %8 = sub i32 %reass.sub, %7
  store i32 %8, ptr %1, align 4, !tbaa !7
  br label %9

9:                                                ; preds = %5, %2
  %10 = phi i32 [ %8, %5 ], [ %3, %2 ]
  %11 = lshr i32 %10, 2
  %12 = or i32 %11, 268435456
  %13 = getelementptr inbounds nuw i8, ptr %0, i64 12
  store i32 %12, ptr %13, align 4, !tbaa !20
  %14 = getelementptr inbounds nuw i8, ptr %0, i64 56
  %15 = load i32, ptr %14, align 8, !tbaa !59
  %16 = add i32 %15, 4
  %17 = load i32, ptr %1, align 4, !tbaa !7
  %18 = add i32 %16, %17
  store i32 %18, ptr %1, align 4, !tbaa !7
  ret void
}